; Function Attrs: mustprogress uwtable
define noundef zeroext i1 @_ZN5mmu_t10mmio_fetchEmmPh(ptr noundef nonnull readonly align 8 captures(none) dereferenceable(43168) %0, i64 noundef %1, i64 noundef %2, ptr noundef %3) local_unnamed_addr #11 align 2 {
  %5 = icmp ult i64 %1, 4096
  br i1 %5, label %6, label %13

6:                                                ; preds = %4
  %7 = getelementptr inbounds nuw i8, ptr %0, i64 80
  %8 = load ptr, ptr %7, align 8, !tbaa !39
  %.not.i = icmp eq ptr %8, null
  br i1 %.not.i, label %13, label %9

9:                                                ; preds = %6
  %10 = getelementptr inbounds nuw i8, ptr %8, i64 2416
  %11 = load i8, ptr %10, align 8, !tbaa !211, !range !69, !noundef !70
  %12 = trunc nuw i8 %11 to i1
  br i1 %12, label %13, label %_ZN5mmu_t7mmio_okEm11access_type.exit

13:                                               ; preds = %4, %6, %9
  %14 = getelementptr inbounds nuw i8, ptr %0, i64 72
  %15 = load ptr, ptr %14, align 8, !tbaa !15
  %16 = load ptr, ptr %15, align 8, !tbaa !40
  %17 = getelementptr inbounds nuw i8, ptr %16, i64 16
  %18 = load ptr, ptr %17, align 8
  %19 = tail call noundef zeroext i1 %18(ptr noundef nonnull align 8 dereferenceable(16) %15, i64 noundef %1, i64 noundef %2, ptr noundef %3)
  br label %_ZN5mmu_t7mmio_okEm11access_type.exit

_ZN5mmu_t7mmio_okEm11access_type.exit:            ; preds = %9, %13
  %.0 = phi i1 [ %19, %13 ], [ false, %9 ]
  ret i1 %.0
}